; ModuleID = '6/3799.c'
source_filename = "6/3799.c"
target datalayout = "e-m:e-p270:32:32-p271:32:32-p272:64:64-i64:64-f80:128-n8:16:32:64-S128"
target triple = "x86_64-pc-linux-gnu"

@.str = private unnamed_addr constant [3 x i8] c"%d\00", align 1
@.str.1 = private unnamed_addr constant [6 x i8] c"%d %d\00", align 1
@.str.2 = private unnamed_addr constant [4 x i8] c"%d\0A\00", align 1

; Function Attrs: noinline nounwind uwtable
define dso_local i32 @main() #0 {
  %1 = alloca i32, align 4
  %2 = alloca i32, align 4
  %3 = alloca i32, align 4
  %4 = alloca i32, align 4
  %5 = alloca i32, align 4
  %6 = alloca [10000 x i32], align 16
  %7 = alloca i32, align 4
  %8 = alloca i32, align 4
  %9 = alloca i32, align 4
  store i32 0, i32* %1, align 4
  %10 = call i32 (i8*, ...) @__isoc99_scanf(i8* getelementptr inbounds ([3 x i8], [3 x i8]* @.str, i64 0, i64 0), i32* %2)
  store i32 1, i32* %3, align 4
  %11 = load i32, i32* %3, align 4
  br label %12

12:                                               ; preds = %103, %0
  %13 = load i32, i32* %3, align 4
  %14 = load i32, i32* %2, align 4
  %15 = icmp sle i32 %13, %14
  br i1 %15, label %16, label %106

16:                                               ; preds = %12
  %17 = call i32 (i8*, ...) @__isoc99_scanf(i8* getelementptr inbounds ([6 x i8], [6 x i8]* @.str.1, i64 0, i64 0), i32* %4, i32* %5)
  store i32 0, i32* %7, align 4
  br label %18

18:                                               ; preds = %29, %16
  %19 = load i32, i32* %7, align 4
  %20 = load i32, i32* %4, align 4
  %21 = load i32, i32* %5, align 4
  %22 = mul nsw i32 %20, %21
  %23 = icmp slt i32 %19, %22
  br i1 %23, label %24, label %32

24:                                               ; preds = %18
  %25 = load i32, i32* %7, align 4
  %26 = sext i32 %25 to i64
  %27 = getelementptr inbounds [10000 x i32], [10000 x i32]* %6, i64 0, i64 %26
  %28 = call i32 (i8*, ...) @__isoc99_scanf(i8* getelementptr inbounds ([3 x i8], [3 x i8]* @.str, i64 0, i64 0), i32* %27)
  br label %29

29:                                               ; preds = %24
  %30 = load i32, i32* %7, align 4
  %31 = add nsw i32 %30, 1
  store i32 %31, i32* %7, align 4
  br label %18

32:                                               ; preds = %18
  store i32 0, i32* %8, align 4
  store i32 0, i32* %9, align 4
  br label %33

33:                                               ; preds = %37, %32
  %34 = load i32, i32* %9, align 4
  %35 = load i32, i32* %5, align 4
  %36 = icmp slt i32 %34, %35
  br i1 %36, label %37, label %46

37:                                               ; preds = %33
  %38 = load i32, i32* %8, align 4
  %39 = load i32, i32* %9, align 4
  %40 = sext i32 %39 to i64
  %41 = getelementptr inbounds [10000 x i32], [10000 x i32]* %6, i64 0, i64 %40
  %42 = load i32, i32* %41, align 4
  %43 = add nsw i32 %38, %42
  store i32 %43, i32* %8, align 4
  %44 = load i32, i32* %9, align 4
  %45 = add nsw i32 %44, 1
  store i32 %45, i32* %9, align 4
  br label %33

46:                                               ; preds = %33
  %47 = load i32, i32* %4, align 4
  %48 = sub nsw i32 %47, 1
  %49 = load i32, i32* %5, align 4
  %50 = mul nsw i32 %48, %49
  store i32 %50, i32* %9, align 4
  br label %51

51:                                               ; preds = %57, %46
  %52 = load i32, i32* %9, align 4
  %53 = load i32, i32* %4, align 4
  %54 = load i32, i32* %5, align 4
  %55 = mul nsw i32 %53, %54
  %56 = icmp slt i32 %52, %55
  br i1 %56, label %57, label %66

57:                                               ; preds = %51
  %58 = load i32, i32* %8, align 4
  %59 = load i32, i32* %9, align 4
  %60 = sext i32 %59 to i64
  %61 = getelementptr inbounds [10000 x i32], [10000 x i32]* %6, i64 0, i64 %60
  %62 = load i32, i32* %61, align 4
  %63 = add nsw i32 %58, %62
  store i32 %63, i32* %8, align 4
  %64 = load i32, i32* %9, align 4
  %65 = add nsw i32 %64, 1
  store i32 %65, i32* %9, align 4
  br label %51

66:                                               ; preds = %51
  store i32 1, i32* %9, align 4
  br label %67

67:                                               ; preds = %72, %66
  %68 = load i32, i32* %9, align 4
  %69 = load i32, i32* %4, align 4
  %70 = sub nsw i32 %69, 1
  %71 = icmp slt i32 %68, %70
  br i1 %71, label %72, label %83

72:                                               ; preds = %67
  %73 = load i32, i32* %8, align 4
  %74 = load i32, i32* %5, align 4
  %75 = load i32, i32* %9, align 4
  %76 = mul nsw i32 %74, %75
  %77 = sext i32 %76 to i64
  %78 = getelementptr inbounds [10000 x i32], [10000 x i32]* %6, i64 0, i64 %77
  %79 = load i32, i32* %78, align 4
  %80 = add nsw i32 %73, %79
  store i32 %80, i32* %8, align 4
  %81 = load i32, i32* %9, align 4
  %82 = add nsw i32 %81, 1
  store i32 %82, i32* %9, align 4
  br label %67

83:                                               ; preds = %67
  store i32 2, i32* %9, align 4
  br label %84

84:                                               ; preds = %88, %83
  %85 = load i32, i32* %9, align 4
  %86 = load i32, i32* %4, align 4
  %87 = icmp slt i32 %85, %86
  br i1 %87, label %88, label %100

88:                                               ; preds = %84
  %89 = load i32, i32* %8, align 4
  %90 = load i32, i32* %5, align 4
  %91 = load i32, i32* %9, align 4
  %92 = mul nsw i32 %90, %91
  %93 = sub nsw i32 %92, 1
  %94 = sext i32 %93 to i64
  %95 = getelementptr inbounds [10000 x i32], [10000 x i32]* %6, i64 0, i64 %94
  %96 = load i32, i32* %95, align 4
  %97 = add nsw i32 %89, %96
  store i32 %97, i32* %8, align 4
  %98 = load i32, i32* %9, align 4
  %99 = add nsw i32 %98, 1
  store i32 %99, i32* %9, align 4
  br label %84

100:                                              ; preds = %84
  %101 = load i32, i32* %8, align 4
  %102 = call i32 (i8*, ...) @printf(i8* getelementptr inbounds ([4 x i8], [4 x i8]* @.str.2, i64 0, i64 0), i32 %101)
  br label %103

103:                                              ; preds = %100
  %104 = load i32, i32* %3, align 4
  %105 = add nsw i32 %104, 1
  store i32 %105, i32* %3, align 4
  br label %12

106:                                              ; preds = %12
  ret i32 0
}

declare dso_local i32 @__isoc99_scanf(i8*, ...) #1

declare dso_local i32 @printf(i8*, ...) #1


!llvm.module.flags = !{!0}
!llvm.ident = !{!1}

!0 = !{i32 1, !"wchar_size", i32 4}
!1 = !{!"clang version 10.0.0-4ubuntu1 "}
